EXPORTS
    ??1CPropertyListener@@UAE@XZ @ 1 NONAME ; CPropertyListener::~CPropertyListener(void)
    ??1CPropertySubscriber@@UAE@XZ @ 2 NONAME ; CPropertySubscriber::~CPropertySubscriber(void)
    ??1CRegistrationTimeout@@UAE@XZ @ 3 NONAME ; CRegistrationTimeout::~CRegistrationTimeout(void)
    ??1CRepositorySubscriber@@UAE@XZ @ 4 NONAME ; CRepositorySubscriber::~CRepositorySubscriber(void)
    ??1CScreenSaverBlocker@@UAE@XZ @ 5 NONAME ; CScreenSaverBlocker::~CScreenSaverBlocker(void)
    ?ActivateLightTimeoutAndScreenSaver@CScreenSaverBlocker@@QAEXXZ @ 6 NONAME ; void CScreenSaverBlocker::ActivateLightTimeoutAndScreenSaver(void)
    ?ConstructL@CPropertySubscriber@@AAEXXZ @ 7 NONAME ; void CPropertySubscriber::ConstructL(void)
    ?DeactivateLightTimeoutAndScreenSaver@CScreenSaverBlocker@@QAEXXZ @ 8 NONAME ; void CScreenSaverBlocker::DeactivateLightTimeoutAndScreenSaver(void)
    ?GetValue@CRepositorySubscriber@@QAEHABKAAH@Z @ 9 NONAME ; int CRepositorySubscriber::GetValue(unsigned long const &, int &)
    ?GetValue@CRepositorySubscriber@@QAEHABKAAVTDes16@@@Z @ 10 NONAME ; int CRepositorySubscriber::GetValue(unsigned long const &, class TDes16 &)
    ?GetValue@CRepositorySubscriber@@QAEHABKAAVTDes8@@@Z @ 11 NONAME ; int CRepositorySubscriber::GetValue(unsigned long const &, class TDes8 &)
    ?Listen@CPropertyListener@@QAEXXZ @ 12 NONAME ; void CPropertyListener::Listen(void)
    ?NewL@CPropertyListener@@SAPAV1@ABVTUid@@ABKAAVMPropertyListenerCallBack@@@Z @ 13 NONAME ; class CPropertyListener * CPropertyListener::NewL(class TUid const &, unsigned long const &, class MPropertyListenerCallBack &)
    ?NewL@CPropertySubscriber@@SAPAV1@PAVMPropertyObserver@@ABVTUid@@I@Z @ 14 NONAME ; class CPropertySubscriber * CPropertySubscriber::NewL(class MPropertyObserver *, class TUid const &, unsigned int)
    ?NewL@CRegistrationTimeout@@SAPAV1@AAVMTimeoutCallback@@@Z @ 15 NONAME ; class CRegistrationTimeout * CRegistrationTimeout::NewL(class MTimeoutCallback &)
    ?NewL@CRepositorySubscriber@@SAPAV1@ABVTUid@@PAVMRepositoryObserver@@@Z @ 16 NONAME ; class CRepositorySubscriber * CRepositorySubscriber::NewL(class TUid const &, class MRepositoryObserver *)
    ?NewL@CScreenSaverBlocker@@SAPAV1@XZ @ 17 NONAME ; class CScreenSaverBlocker * CScreenSaverBlocker::NewL(void)
    ?NewLC@CPropertyListener@@SAPAV1@ABVTUid@@ABKAAVMPropertyListenerCallBack@@@Z @ 18 NONAME ; class CPropertyListener * CPropertyListener::NewLC(class TUid const &, unsigned long const &, class MPropertyListenerCallBack &)
    ?SetObserver@CRepositorySubscriber@@QAEXPAVMRepositoryObserver@@@Z @ 19 NONAME ; void CRepositorySubscriber::SetObserver(class MRepositoryObserver *)
    ?SetValue@CRepositorySubscriber@@QAEHABKABH@Z @ 20 NONAME ; int CRepositorySubscriber::SetValue(unsigned long const &, int const &)
    ?SetValue@CRepositorySubscriber@@QAEHABKABVTDesC16@@@Z @ 21 NONAME ; int CRepositorySubscriber::SetValue(unsigned long const &, class TDesC16 const &)
    ?SetValue@CRepositorySubscriber@@QAEHABKABVTDesC8@@@Z @ 22 NONAME ; int CRepositorySubscriber::SetValue(unsigned long const &, class TDesC8 const &)
    ?Start@CRegistrationTimeout@@QAEXH@Z @ 23 NONAME ; void CRegistrationTimeout::Start(int)
    ?Subscribe@CPropertySubscriber@@QAEXXZ @ 24 NONAME ; void CPropertySubscriber::Subscribe(void)
    ?SubscribeL@CRepositorySubscriber@@QAEXABK@Z @ 25 NONAME ; void CRepositorySubscriber::SubscribeL(unsigned long const &)
    ?Unsubscribe@CRepositorySubscriber@@QAEXABK@Z @ 26 NONAME ; void CRepositorySubscriber::Unsubscribe(unsigned long const &)

